target datalayout = "e-m:e-p270:32:32-p271:32:32-p272:64:64-i64:64-i128:128-f80:128-n8:16:32:64-S128"
target triple = "x86_64-pc-linux-gnu"

%struct._http_response_code_t = type { i32, i32, ptr, ptr }

@.str.13 = private unnamed_addr constant [1 x i8] zeroinitializer, align 1
@.str.14 = private unnamed_addr constant [22 x i8] c"ui/cli/tap-httpstat.c\00", align 1
@__func__.http_draw_hash_responses = private unnamed_addr constant [25 x i8] c"http_draw_hash_responses\00", align 1
@.str.15 = private unnamed_addr constant [27 x i8] c"No data available, key=%d\0A\00", align 1

; Function Attrs: null_pointer_is_valid sspstrong uwtable
define internal void @http_draw_hash_responses(ptr noundef %0, ptr noundef %1, ptr noundef %2) #0 {
  %4 = alloca ptr, align 8
  %5 = alloca ptr, align 8
  %6 = alloca ptr, align 8
  store ptr %0, ptr %4, align 8
  store ptr %1, ptr %5, align 8
  store ptr %2, ptr %6, align 8
  %7 = load ptr, ptr %5, align 8
  %8 = icmp eq ptr %7, null
  br i1 %8, label %9, label %14

9:                                                ; preds = %3
  br label %10

10:                                               ; preds = %9
  %11 = load ptr, ptr %4, align 8
  %12 = load i32, ptr %11, align 4
  call void (ptr, i32, ptr, i64, ptr, ptr, ...) @ws_log_full(ptr noundef @.str.13, i32 noundef 5, ptr noundef @.str.14, i64 noundef 88, ptr noundef @__func__.http_draw_hash_responses, ptr noundef @.str.15, i32 noundef %12)
  br label %13

13:                                               ; preds = %10
  call void @exit(i32 noundef 1) #14
  unreachable

14:                                               ; preds = %3
  %15 = load ptr, ptr %5, align 8
  %16 = getelementptr inbounds nuw %struct._http_response_code_t, ptr %15, i32 0, i32 0
  %17 = load i32, ptr %16, align 8
  %18 = icmp eq i32 %17, 0
  br i1 %18, label %19, label %20

19:                                               ; preds = %14
  br label %32

20:                                               ; preds = %14
  %21 = load ptr, ptr %6, align 8
  %22 = load ptr, ptr %5, align 8
  %23 = getelementptr inbounds nuw %struct._http_response_code_t, ptr %22, i32 0, i32 1
  %24 = load i32, ptr %23, align 4
  %25 = load ptr, ptr %5, align 8
  %26 = getelementptr inbounds nuw %struct._http_response_code_t, ptr %25, i32 0, i32 2
  %27 = load ptr, ptr %26, align 8
  %28 = load ptr, ptr %5, align 8
  %29 = getelementptr inbounds nuw %struct._http_response_code_t, ptr %28, i32 0, i32 0
  %30 = load i32, ptr %29, align 8
  %31 = call i32 (i32, ptr, ...) @__printf_chk(i32 noundef 2, ptr noundef %21, i32 noundef %24, ptr noundef %27, i32 noundef %30)
  br label %32

32:                                               ; preds = %20, %19
  ret void
}